; Function Attrs: inlinehint mustprogress nounwind uwtable
define internal fastcc void @_ZN3ue212_GLOBAL__N_18dfa_infoD2Ev(ptr noundef nonnull readonly align 8 captures(none) dereferenceable(90) %0) unnamed_addr #3 align 2 personality ptr @__gxx_personality_v0 {
  %2 = getelementptr inbounds nuw i8, ptr %0, i64 64
  %3 = load ptr, ptr %2, align 8
  %.not.i.i.i = icmp eq ptr %3, null
  br i1 %.not.i.i.i, label %_ZNSt6vectorIN3ue29CharReachESaIS1_EED2Ev.exit, label %4

4:                                                ; preds = %1
  tail call void @_ZdlPv(ptr noundef nonnull %3) #25
  br label %_ZNSt6vectorIN3ue29CharReachESaIS1_EED2Ev.exit

_ZNSt6vectorIN3ue29CharReachESaIS1_EED2Ev.exit:   ; preds = %1, %4
  %5 = getelementptr inbounds nuw i8, ptr %0, i64 24
  %.val = load ptr, ptr %5, align 8
  %.not.i.i.i2 = icmp eq ptr %.val, null
  br i1 %.not.i.i.i2, label %_ZNSt6vectorIN3ue212_GLOBAL__N_112dstate_extraESaIS2_EED2Ev.exit, label %6

6:                                                ; preds = %_ZNSt6vectorIN3ue29CharReachESaIS1_EED2Ev.exit
  tail call void @_ZdlPv(ptr noundef nonnull %.val) #25
  br label %_ZNSt6vectorIN3ue212_GLOBAL__N_112dstate_extraESaIS2_EED2Ev.exit

_ZNSt6vectorIN3ue212_GLOBAL__N_112dstate_extraESaIS2_EED2Ev.exit: ; preds = %_ZNSt6vectorIN3ue29CharReachESaIS1_EED2Ev.exit, %6
  ret void
}